target datalayout = "e-m:e-p270:32:32-p271:32:32-p272:64:64-i64:64-i128:128-f80:128-n8:16:32:64-S128"
target triple = "x86_64-pc-linux-gnu"

@ps_decorrelate_c.a = internal constant [3 x float] [float 0x3FE4D896C0000000, float 0x3FE2122BC0000000, float 0x3FDF54A680000000], align 4

; Function Attrs: nounwind uwtable
define internal void @ps_decorrelate_c(ptr noundef %0, ptr noundef %1, ptr noundef %2, ptr noundef %3, ptr noundef %4, ptr noundef %5, float noundef %6, i32 noundef %7) #1 {
  %9 = alloca ptr, align 8
  %10 = alloca ptr, align 8
  %11 = alloca ptr, align 8
  %12 = alloca ptr, align 8
  %13 = alloca ptr, align 8
  %14 = alloca ptr, align 8
  %15 = alloca float, align 4
  %16 = alloca i32, align 4
  %17 = alloca [3 x float], align 4
  %18 = alloca i32, align 4
  %19 = alloca i32, align 4
  %20 = alloca float, align 4
  %21 = alloca float, align 4
  %22 = alloca float, align 4
  %23 = alloca float, align 4
  %24 = alloca float, align 4
  %25 = alloca float, align 4
  %26 = alloca float, align 4
  %27 = alloca float, align 4
  %28 = alloca float, align 4
  %29 = alloca float, align 4
  store ptr %0, ptr %9, align 8, !tbaa !17
  store ptr %1, ptr %10, align 8, !tbaa !17
  store ptr %2, ptr %11, align 8, !tbaa !17
  store ptr %3, ptr %12, align 8, !tbaa !17
  store ptr %4, ptr %13, align 8, !tbaa !17
  store ptr %5, ptr %14, align 8, !tbaa !17
  store float %6, ptr %15, align 4, !tbaa !21
  store i32 %7, ptr %16, align 4, !tbaa !19
  call void @llvm.lifetime.start.p0(i64 12, ptr %17) #4
  call void @llvm.lifetime.start.p0(i64 4, ptr %18) #4
  call void @llvm.lifetime.start.p0(i64 4, ptr %19) #4
  store i32 0, ptr %18, align 4, !tbaa !19
  br label %30

30:                                               ; preds = %43, %8
  %31 = load i32, ptr %18, align 4, !tbaa !19
  %32 = icmp slt i32 %31, 3
  br i1 %32, label %33, label %46

33:                                               ; preds = %30
  %34 = load i32, ptr %18, align 4, !tbaa !19
  %35 = sext i32 %34 to i64
  %36 = getelementptr inbounds [3 x float], ptr @ps_decorrelate_c.a, i64 0, i64 %35
  %37 = load float, ptr %36, align 4, !tbaa !21
  %38 = load float, ptr %15, align 4, !tbaa !21
  %39 = fmul nsz float %37, %38
  %40 = load i32, ptr %18, align 4, !tbaa !19
  %41 = sext i32 %40 to i64
  %42 = getelementptr inbounds [3 x float], ptr %17, i64 0, i64 %41
  store float %39, ptr %42, align 4, !tbaa !21
  br label %43

43:                                               ; preds = %33
  %44 = load i32, ptr %18, align 4, !tbaa !19
  %45 = add nsw i32 %44, 1
  store i32 %45, ptr %18, align 4, !tbaa !19
  br label %30, !llvm.loop !35

46:                                               ; preds = %30
  store i32 0, ptr %19, align 4, !tbaa !19
  br label %47

47:                                               ; preds = %226, %46
  %48 = load i32, ptr %19, align 4, !tbaa !19
  %49 = load i32, ptr %16, align 4, !tbaa !19
  %50 = icmp slt i32 %48, %49
  br i1 %50, label %51, label %229

51:                                               ; preds = %47
  call void @llvm.lifetime.start.p0(i64 4, ptr %20) #4
  %52 = load ptr, ptr %10, align 8, !tbaa !17
  %53 = load i32, ptr %19, align 4, !tbaa !19
  %54 = sext i32 %53 to i64
  %55 = getelementptr inbounds [2 x float], ptr %52, i64 %54
  %56 = getelementptr inbounds [2 x float], ptr %55, i64 0, i64 0
  %57 = load float, ptr %56, align 4, !tbaa !21
  %58 = load ptr, ptr %12, align 8, !tbaa !17
  %59 = getelementptr inbounds float, ptr %58, i64 0
  %60 = load float, ptr %59, align 4, !tbaa !21
  %61 = load ptr, ptr %10, align 8, !tbaa !17
  %62 = load i32, ptr %19, align 4, !tbaa !19
  %63 = sext i32 %62 to i64
  %64 = getelementptr inbounds [2 x float], ptr %61, i64 %63
  %65 = getelementptr inbounds [2 x float], ptr %64, i64 0, i64 1
  %66 = load float, ptr %65, align 4, !tbaa !21
  %67 = load ptr, ptr %12, align 8, !tbaa !17
  %68 = getelementptr inbounds float, ptr %67, i64 1
  %69 = load float, ptr %68, align 4, !tbaa !21
  %70 = fmul nsz float %66, %69
  %71 = fneg nsz float %70
  %72 = call nsz float @llvm.fmuladd.f32(float %57, float %60, float %71)
  store float %72, ptr %20, align 4, !tbaa !21
  call void @llvm.lifetime.start.p0(i64 4, ptr %21) #4
  %73 = load ptr, ptr %10, align 8, !tbaa !17
  %74 = load i32, ptr %19, align 4, !tbaa !19
  %75 = sext i32 %74 to i64
  %76 = getelementptr inbounds [2 x float], ptr %73, i64 %75
  %77 = getelementptr inbounds [2 x float], ptr %76, i64 0, i64 0
  %78 = load float, ptr %77, align 4, !tbaa !21
  %79 = load ptr, ptr %12, align 8, !tbaa !17
  %80 = getelementptr inbounds float, ptr %79, i64 1
  %81 = load float, ptr %80, align 4, !tbaa !21
  %82 = load ptr, ptr %10, align 8, !tbaa !17
  %83 = load i32, ptr %19, align 4, !tbaa !19
  %84 = sext i32 %83 to i64
  %85 = getelementptr inbounds [2 x float], ptr %82, i64 %84
  %86 = getelementptr inbounds [2 x float], ptr %85, i64 0, i64 1
  %87 = load float, ptr %86, align 4, !tbaa !21
  %88 = load ptr, ptr %12, align 8, !tbaa !17
  %89 = getelementptr inbounds float, ptr %88, i64 0
  %90 = load float, ptr %89, align 4, !tbaa !21
  %91 = fmul nsz float %87, %90
  %92 = call nsz float @llvm.fmuladd.f32(float %78, float %81, float %91)
  store float %92, ptr %21, align 4, !tbaa !21
  store i32 0, ptr %18, align 4, !tbaa !19
  br label %93

93:                                               ; preds = %198, %51
  %94 = load i32, ptr %18, align 4, !tbaa !19
  %95 = icmp slt i32 %94, 3
  br i1 %95, label %96, label %201

96:                                               ; preds = %93
  call void @llvm.lifetime.start.p0(i64 4, ptr %22) #4
  %97 = load i32, ptr %18, align 4, !tbaa !19
  %98 = sext i32 %97 to i64
  %99 = getelementptr inbounds [3 x float], ptr %17, i64 0, i64 %98
  %100 = load float, ptr %99, align 4, !tbaa !21
  %101 = load float, ptr %20, align 4, !tbaa !21
  %102 = fmul nsz float %100, %101
  store float %102, ptr %22, align 4, !tbaa !21
  call void @llvm.lifetime.start.p0(i64 4, ptr %23) #4
  %103 = load i32, ptr %18, align 4, !tbaa !19
  %104 = sext i32 %103 to i64
  %105 = getelementptr inbounds [3 x float], ptr %17, i64 0, i64 %104
  %106 = load float, ptr %105, align 4, !tbaa !21
  %107 = load float, ptr %21, align 4, !tbaa !21
  %108 = fmul nsz float %106, %107
  store float %108, ptr %23, align 4, !tbaa !21
  call void @llvm.lifetime.start.p0(i64 4, ptr %24) #4
  %109 = load ptr, ptr %11, align 8, !tbaa !17
  %110 = load i32, ptr %18, align 4, !tbaa !19
  %111 = sext i32 %110 to i64
  %112 = getelementptr inbounds [37 x [2 x float]], ptr %109, i64 %111
  %113 = load i32, ptr %19, align 4, !tbaa !19
  %114 = add nsw i32 %113, 2
  %115 = load i32, ptr %18, align 4, !tbaa !19
  %116 = sub nsw i32 %114, %115
  %117 = sext i32 %116 to i64
  %118 = getelementptr inbounds [37 x [2 x float]], ptr %112, i64 0, i64 %117
  %119 = getelementptr inbounds [2 x float], ptr %118, i64 0, i64 0
  %120 = load float, ptr %119, align 4, !tbaa !21
  store float %120, ptr %24, align 4, !tbaa !21
  call void @llvm.lifetime.start.p0(i64 4, ptr %25) #4
  %121 = load ptr, ptr %11, align 8, !tbaa !17
  %122 = load i32, ptr %18, align 4, !tbaa !19
  %123 = sext i32 %122 to i64
  %124 = getelementptr inbounds [37 x [2 x float]], ptr %121, i64 %123
  %125 = load i32, ptr %19, align 4, !tbaa !19
  %126 = add nsw i32 %125, 2
  %127 = load i32, ptr %18, align 4, !tbaa !19
  %128 = sub nsw i32 %126, %127
  %129 = sext i32 %128 to i64
  %130 = getelementptr inbounds [37 x [2 x float]], ptr %124, i64 0, i64 %129
  %131 = getelementptr inbounds [2 x float], ptr %130, i64 0, i64 1
  %132 = load float, ptr %131, align 4, !tbaa !21
  store float %132, ptr %25, align 4, !tbaa !21
  call void @llvm.lifetime.start.p0(i64 4, ptr %26) #4
  %133 = load ptr, ptr %13, align 8, !tbaa !17
  %134 = load i32, ptr %18, align 4, !tbaa !19
  %135 = sext i32 %134 to i64
  %136 = getelementptr inbounds [2 x float], ptr %133, i64 %135
  %137 = getelementptr inbounds [2 x float], ptr %136, i64 0, i64 0
  %138 = load float, ptr %137, align 4, !tbaa !21
  store float %138, ptr %26, align 4, !tbaa !21
  call void @llvm.lifetime.start.p0(i64 4, ptr %27) #4
  %139 = load ptr, ptr %13, align 8, !tbaa !17
  %140 = load i32, ptr %18, align 4, !tbaa !19
  %141 = sext i32 %140 to i64
  %142 = getelementptr inbounds [2 x float], ptr %139, i64 %141
  %143 = getelementptr inbounds [2 x float], ptr %142, i64 0, i64 1
  %144 = load float, ptr %143, align 4, !tbaa !21
  store float %144, ptr %27, align 4, !tbaa !21
  call void @llvm.lifetime.start.p0(i64 4, ptr %28) #4
  %145 = load float, ptr %20, align 4, !tbaa !21
  store float %145, ptr %28, align 4, !tbaa !21
  call void @llvm.lifetime.start.p0(i64 4, ptr %29) #4
  %146 = load float, ptr %21, align 4, !tbaa !21
  store float %146, ptr %29, align 4, !tbaa !21
  %147 = load float, ptr %24, align 4, !tbaa !21
  %148 = load float, ptr %26, align 4, !tbaa !21
  %149 = load float, ptr %25, align 4, !tbaa !21
  %150 = load float, ptr %27, align 4, !tbaa !21
  %151 = fmul nsz float %149, %150
  %152 = fneg nsz float %151
  %153 = call nsz float @llvm.fmuladd.f32(float %147, float %148, float %152)
  store float %153, ptr %20, align 4, !tbaa !21
  %154 = load float, ptr %22, align 4, !tbaa !21
  %155 = load float, ptr %20, align 4, !tbaa !21
  %156 = fsub nsz float %155, %154
  store float %156, ptr %20, align 4, !tbaa !21
  %157 = load float, ptr %24, align 4, !tbaa !21
  %158 = load float, ptr %27, align 4, !tbaa !21
  %159 = load float, ptr %25, align 4, !tbaa !21
  %160 = load float, ptr %26, align 4, !tbaa !21
  %161 = fmul nsz float %159, %160
  %162 = call nsz float @llvm.fmuladd.f32(float %157, float %158, float %161)
  store float %162, ptr %21, align 4, !tbaa !21
  %163 = load float, ptr %23, align 4, !tbaa !21
  %164 = load float, ptr %21, align 4, !tbaa !21
  %165 = fsub nsz float %164, %163
  store float %165, ptr %21, align 4, !tbaa !21
  %166 = load float, ptr %28, align 4, !tbaa !21
  %167 = load i32, ptr %18, align 4, !tbaa !19
  %168 = sext i32 %167 to i64
  %169 = getelementptr inbounds [3 x float], ptr %17, i64 0, i64 %168
  %170 = load float, ptr %169, align 4, !tbaa !21
  %171 = load float, ptr %20, align 4, !tbaa !21
  %172 = call nsz float @llvm.fmuladd.f32(float %170, float %171, float %166)
  %173 = load ptr, ptr %11, align 8, !tbaa !17
  %174 = load i32, ptr %18, align 4, !tbaa !19
  %175 = sext i32 %174 to i64
  %176 = getelementptr inbounds [37 x [2 x float]], ptr %173, i64 %175
  %177 = load i32, ptr %19, align 4, !tbaa !19
  %178 = add nsw i32 %177, 5
  %179 = sext i32 %178 to i64
  %180 = getelementptr inbounds [37 x [2 x float]], ptr %176, i64 0, i64 %179
  %181 = getelementptr inbounds [2 x float], ptr %180, i64 0, i64 0
  store float %172, ptr %181, align 4, !tbaa !21
  %182 = load float, ptr %29, align 4, !tbaa !21
  %183 = load i32, ptr %18, align 4, !tbaa !19
  %184 = sext i32 %183 to i64
  %185 = getelementptr inbounds [3 x float], ptr %17, i64 0, i64 %184
  %186 = load float, ptr %185, align 4, !tbaa !21
  %187 = load float, ptr %21, align 4, !tbaa !21
  %188 = call nsz float @llvm.fmuladd.f32(float %186, float %187, float %182)
  %189 = load ptr, ptr %11, align 8, !tbaa !17
  %190 = load i32, ptr %18, align 4, !tbaa !19
  %191 = sext i32 %190 to i64
  %192 = getelementptr inbounds [37 x [2 x float]], ptr %189, i64 %191
  %193 = load i32, ptr %19, align 4, !tbaa !19
  %194 = add nsw i32 %193, 5
  %195 = sext i32 %194 to i64
  %196 = getelementptr inbounds [37 x [2 x float]], ptr %192, i64 0, i64 %195
  %197 = getelementptr inbounds [2 x float], ptr %196, i64 0, i64 1
  store float %188, ptr %197, align 4, !tbaa !21
  call void @llvm.lifetime.end.p0(i64 4, ptr %29) #4
  call void @llvm.lifetime.end.p0(i64 4, ptr %28) #4
  call void @llvm.lifetime.end.p0(i64 4, ptr %27) #4
  call void @llvm.lifetime.end.p0(i64 4, ptr %26) #4
  call void @llvm.lifetime.end.p0(i64 4, ptr %25) #4
  call void @llvm.lifetime.end.p0(i64 4, ptr %24) #4
  call void @llvm.lifetime.end.p0(i64 4, ptr %23) #4
  call void @llvm.lifetime.end.p0(i64 4, ptr %22) #4
  br label %198

198:                                              ; preds = %96
  %199 = load i32, ptr %18, align 4, !tbaa !19
  %200 = add nsw i32 %199, 1
  store i32 %200, ptr %18, align 4, !tbaa !19
  br label %93, !llvm.loop !36

201:                                              ; preds = %93
  %202 = load ptr, ptr %14, align 8, !tbaa !17
  %203 = load i32, ptr %19, align 4, !tbaa !19
  %204 = sext i32 %203 to i64
  %205 = getelementptr inbounds float, ptr %202, i64 %204
  %206 = load float, ptr %205, align 4, !tbaa !21
  %207 = load float, ptr %20, align 4, !tbaa !21
  %208 = fmul nsz float %206, %207
  %209 = load ptr, ptr %9, align 8, !tbaa !17
  %210 = load i32, ptr %19, align 4, !tbaa !19
  %211 = sext i32 %210 to i64
  %212 = getelementptr inbounds [2 x float], ptr %209, i64 %211
  %213 = getelementptr inbounds [2 x float], ptr %212, i64 0, i64 0
  store float %208, ptr %213, align 4, !tbaa !21
  %214 = load ptr, ptr %14, align 8, !tbaa !17
  %215 = load i32, ptr %19, align 4, !tbaa !19
  %216 = sext i32 %215 to i64
  %217 = getelementptr inbounds float, ptr %214, i64 %216
  %218 = load float, ptr %217, align 4, !tbaa !21
  %219 = load float, ptr %21, align 4, !tbaa !21
  %220 = fmul nsz float %218, %219
  %221 = load ptr, ptr %9, align 8, !tbaa !17
  %222 = load i32, ptr %19, align 4, !tbaa !19
  %223 = sext i32 %222 to i64
  %224 = getelementptr inbounds [2 x float], ptr %221, i64 %223
  %225 = getelementptr inbounds [2 x float], ptr %224, i64 0, i64 1
  store float %220, ptr %225, align 4, !tbaa !21
  call void @llvm.lifetime.end.p0(i64 4, ptr %21) #4
  call void @llvm.lifetime.end.p0(i64 4, ptr %20) #4
  br label %226

226:                                              ; preds = %201
  %227 = load i32, ptr %19, align 4, !tbaa !19
  %228 = add nsw i32 %227, 1
  store i32 %228, ptr %19, align 4, !tbaa !19
  br label %47, !llvm.loop !37

229:                                              ; preds = %47
  call void @llvm.lifetime.end.p0(i64 4, ptr %19) #4
  call void @llvm.lifetime.end.p0(i64 4, ptr %18) #4
  call void @llvm.lifetime.end.p0(i64 12, ptr %17) #4
  ret void
}