; Function Attrs: nofree norecurse nosync nounwind memory(argmem: readwrite) uwtable
define internal void @ps_decorrelate_c(ptr noundef writeonly captures(none) %0, ptr noundef readonly captures(none) %1, ptr noundef captures(none) %2, ptr noundef readonly captures(none) %3, ptr noundef readonly captures(none) %4, ptr noundef readonly captures(none) %5, float noundef %6, i32 noundef %7) #1 {
  %9 = alloca [3 x float], align 4
  call void @llvm.lifetime.start.p0(i64 12, ptr nonnull %9) #4
  br label %12

.preheader:                                       ; preds = %12
  %10 = icmp sgt i32 %7, 0
  br i1 %10, label %.lr.ph, label %._crit_edge

.lr.ph:                                           ; preds = %.preheader
  %11 = getelementptr inbounds nuw i8, ptr %3, i64 4
  %wide.trip.count = zext nneg i32 %7 to i64
  br label %17

12:                                               ; preds = %8, %12
  %indvars.iv = phi i64 [ 0, %8 ], [ %indvars.iv.next, %12 ]
  %13 = getelementptr inbounds nuw [3 x float], ptr @ps_decorrelate_c.a, i64 0, i64 %indvars.iv
  %14 = load float, ptr %13, align 4, !tbaa !15
  %15 = fmul nsz float %6, %14
  %16 = getelementptr inbounds nuw [3 x float], ptr %9, i64 0, i64 %indvars.iv
  store float %15, ptr %16, align 4, !tbaa !15
  %indvars.iv.next = add nuw nsw i64 %indvars.iv, 1
  %exitcond.not = icmp eq i64 %indvars.iv.next, 3
  br i1 %exitcond.not, label %.preheader, label %12, !llvm.loop !27

17:                                               ; preds = %.lr.ph, %56
  %indvars.iv87 = phi i64 [ 0, %.lr.ph ], [ %indvars.iv.next88, %56 ]
  %18 = getelementptr inbounds nuw [2 x float], ptr %1, i64 %indvars.iv87
  %19 = load float, ptr %18, align 4, !tbaa !15
  %20 = load float, ptr %3, align 4, !tbaa !15
  %21 = getelementptr inbounds nuw i8, ptr %18, i64 4
  %22 = load float, ptr %21, align 4, !tbaa !15
  %23 = load float, ptr %11, align 4, !tbaa !15
  %24 = fneg nsz float %23
  %25 = fmul nsz float %22, %24
  %26 = tail call nsz float @llvm.fmuladd.f32(float %19, float %20, float %25)
  %27 = fmul nsz float %20, %22
  %28 = tail call nsz float @llvm.fmuladd.f32(float %19, float %23, float %27)
  %29 = add nuw nsw i64 %indvars.iv87, 2
  %30 = add nuw nsw i64 %indvars.iv87, 5
  br label %31

31:                                               ; preds = %17, %31
  %indvars.iv83 = phi i64 [ 0, %17 ], [ %indvars.iv.next84, %31 ]
  %.07478 = phi float [ %26, %17 ], [ %48, %31 ]
  %.07577 = phi float [ %28, %17 ], [ %51, %31 ]
  %32 = getelementptr inbounds nuw [3 x float], ptr %9, i64 0, i64 %indvars.iv83
  %33 = load float, ptr %32, align 4, !tbaa !15
  %34 = fmul nsz float %.07478, %33
  %35 = fmul nsz float %.07577, %33
  %36 = sub nuw nsw i64 %29, %indvars.iv83
  %37 = getelementptr inbounds nuw [37 x [2 x float]], ptr %2, i64 %indvars.iv83, i64 %36
  %38 = load float, ptr %37, align 4, !tbaa !15
  %39 = getelementptr inbounds nuw i8, ptr %37, i64 4
  %40 = load float, ptr %39, align 4, !tbaa !15
  %41 = getelementptr inbounds nuw [2 x float], ptr %4, i64 %indvars.iv83
  %42 = load float, ptr %41, align 4, !tbaa !15
  %43 = getelementptr inbounds nuw i8, ptr %41, i64 4
  %44 = load float, ptr %43, align 4, !tbaa !15
  %45 = fneg nsz float %44
  %46 = fmul nsz float %40, %45
  %47 = tail call nsz float @llvm.fmuladd.f32(float %38, float %42, float %46)
  %48 = fsub nsz float %47, %34
  %49 = fmul nsz float %40, %42
  %50 = tail call nsz float @llvm.fmuladd.f32(float %38, float %44, float %49)
  %51 = fsub nsz float %50, %35
  %52 = tail call nsz float @llvm.fmuladd.f32(float %33, float %48, float %.07478)
  %53 = getelementptr inbounds nuw [37 x [2 x float]], ptr %2, i64 %indvars.iv83, i64 %30
  store float %52, ptr %53, align 4, !tbaa !15
  %54 = tail call nsz float @llvm.fmuladd.f32(float %33, float %51, float %.07577)
  %55 = getelementptr inbounds nuw i8, ptr %53, i64 4
  store float %54, ptr %55, align 4, !tbaa !15
  %indvars.iv.next84 = add nuw nsw i64 %indvars.iv83, 1
  %exitcond86.not = icmp eq i64 %indvars.iv.next84, 3
  br i1 %exitcond86.not, label %56, label %31, !llvm.loop !28

56:                                               ; preds = %31
  %57 = getelementptr inbounds nuw float, ptr %5, i64 %indvars.iv87
  %58 = load float, ptr %57, align 4, !tbaa !15
  %59 = fmul nsz float %48, %58
  %60 = getelementptr inbounds nuw [2 x float], ptr %0, i64 %indvars.iv87
  store float %59, ptr %60, align 4, !tbaa !15
  %61 = load float, ptr %57, align 4, !tbaa !15
  %62 = fmul nsz float %51, %61
  %63 = getelementptr inbounds nuw i8, ptr %60, i64 4
  store float %62, ptr %63, align 4, !tbaa !15
  %indvars.iv.next88 = add nuw nsw i64 %indvars.iv87, 1
  %exitcond90.not = icmp eq i64 %indvars.iv.next88, %wide.trip.count
  br i1 %exitcond90.not, label %._crit_edge, label %17, !llvm.loop !29

._crit_edge:                                      ; preds = %56, %.preheader
  call void @llvm.lifetime.end.p0(i64 12, ptr nonnull %9) #4
  ret void
}